; Function Attrs: mustprogress uwtable
define void @_ZNK10open_spiel20ultimate_tic_tac_toe16UltimateTTTState14ActionToStringB5cxx11Eil(ptr dead_on_unwind noalias writable sret(%"class.std::__cxx11::basic_string") align 8 %0, ptr nocapture noundef nonnull readonly align 8 dereferenceable(192) %1, i32 noundef %2, i64 noundef %3) unnamed_addr #3 align 2 personality ptr @__gxx_personality_v0 {
  %5 = alloca %"class.absl::debian2::AlphaNum", align 8
  %6 = alloca %"class.absl::debian2::AlphaNum", align 8
  %7 = alloca %"class.absl::debian2::AlphaNum", align 8
  %8 = alloca %"class.absl::debian2::AlphaNum", align 8
  %9 = alloca %"class.absl::debian2::AlphaNum", align 8
  %10 = alloca %"class.absl::debian2::AlphaNum", align 8
  %11 = alloca %"class.std::__cxx11::basic_string", align 8
  %12 = getelementptr inbounds nuw i8, ptr %1, i64 188
  %13 = load i32, ptr %12, align 4
  %14 = icmp slt i32 %13, 0
  br i1 %14, label %_ZN4absl7debian28AlphaNumC2EPKc.exit, label %_ZN4absl7debian28AlphaNumC2EPKc.exit5

_ZN4absl7debian28AlphaNumC2EPKc.exit:             ; preds = %4
  store ptr @.str.17, ptr %5, align 8
  %15 = getelementptr inbounds nuw i8, ptr %5, i64 8
  store i64 19, ptr %15, align 8
  %16 = getelementptr inbounds nuw i8, ptr %6, i64 16
  %17 = call noundef ptr @_ZN4absl7debian216numbers_internal15FastIntToBufferElPc(i64 noundef %3, ptr noundef nonnull %16)
  %18 = ptrtoint ptr %17 to i64
  %19 = ptrtoint ptr %16 to i64
  %20 = sub i64 %18, %19
  store ptr %16, ptr %6, align 8
  %21 = icmp sgt i64 %20, -1
  br i1 %21, label %_ZN4absl7debian28AlphaNumC2El.exit, label %22

22:                                               ; preds = %_ZN4absl7debian28AlphaNumC2EPKc.exit
  call void @llvm.trap()
  unreachable

_ZN4absl7debian28AlphaNumC2El.exit:               ; preds = %_ZN4absl7debian28AlphaNumC2EPKc.exit
  %23 = getelementptr inbounds nuw i8, ptr %6, i64 8
  store i64 %20, ptr %23, align 8
  call void @_ZN4absl7debian26StrCatB5cxx11ERKNS0_8AlphaNumES3_(ptr dead_on_unwind writable sret(%"class.std::__cxx11::basic_string") align 8 %0, ptr noundef nonnull align 8 dereferenceable(48) %5, ptr noundef nonnull align 8 dereferenceable(48) %6)
  br label %50

_ZN4absl7debian28AlphaNumC2EPKc.exit5:            ; preds = %4
  store ptr @.str.18, ptr %7, align 8
  %24 = getelementptr inbounds nuw i8, ptr %7, i64 8
  store i64 12, ptr %24, align 8
  %25 = getelementptr inbounds nuw i8, ptr %8, i64 16
  %26 = call noundef ptr @_ZN4absl7debian216numbers_internal15FastIntToBufferEiPc(i32 noundef %13, ptr noundef nonnull %25)
  %27 = ptrtoint ptr %26 to i64
  %28 = ptrtoint ptr %25 to i64
  %29 = sub i64 %27, %28
  store ptr %25, ptr %8, align 8
  %30 = icmp sgt i64 %29, -1
  br i1 %30, label %_ZN4absl7debian28AlphaNumC2Ei.exit, label %31

31:                                               ; preds = %_ZN4absl7debian28AlphaNumC2EPKc.exit5
  call void @llvm.trap()
  unreachable

_ZN4absl7debian28AlphaNumC2Ei.exit:               ; preds = %_ZN4absl7debian28AlphaNumC2EPKc.exit5
  %32 = getelementptr inbounds nuw i8, ptr %8, i64 8
  store i64 %29, ptr %32, align 8
  store ptr @.str.19, ptr %9, align 8
  %33 = getelementptr inbounds nuw i8, ptr %9, i64 8
  store i64 2, ptr %33, align 8
  %34 = getelementptr inbounds nuw i8, ptr %1, i64 80
  %35 = load i32, ptr %12, align 4
  %36 = sext i32 %35 to i64
  %37 = getelementptr inbounds [9 x %"class.std::unique_ptr"], ptr %34, i64 0, i64 %36
  %38 = load ptr, ptr %37, align 8
  %39 = load ptr, ptr %38, align 8
  %40 = getelementptr inbounds i8, ptr %39, i64 56
  %41 = load ptr, ptr %40, align 8
  call void %41(ptr dead_on_unwind nonnull writable sret(%"class.std::__cxx11::basic_string") align 8 %11, ptr noundef nonnull align 8 dereferenceable(60) %38, i32 noundef %2, i64 noundef %3)
  %42 = call noundef ptr @_ZNKSt7__cxx1112basic_stringIcSt11char_traitsIcESaIcEE4dataEv(ptr noundef nonnull align 8 dereferenceable(32) %11) #24
  %43 = call noundef i64 @_ZNKSt7__cxx1112basic_stringIcSt11char_traitsIcESaIcEE4sizeEv(ptr noundef nonnull align 8 dereferenceable(32) %11) #24
  store ptr %42, ptr %10, align 8
  %44 = icmp sgt i64 %43, -1
  br i1 %44, label %_ZN4absl7debian28AlphaNumC2ISaIcEEERKNSt7__cxx1112basic_stringIcSt11char_traitsIcET_EE.exit, label %45

45:                                               ; preds = %_ZN4absl7debian28AlphaNumC2Ei.exit
  call void @llvm.trap()
  unreachable

_ZN4absl7debian28AlphaNumC2ISaIcEEERKNSt7__cxx1112basic_stringIcSt11char_traitsIcET_EE.exit: ; preds = %_ZN4absl7debian28AlphaNumC2Ei.exit
  %46 = getelementptr inbounds nuw i8, ptr %10, i64 8
  store i64 %43, ptr %46, align 8
  invoke void @_ZN4absl7debian26StrCatB5cxx11ERKNS0_8AlphaNumES3_S3_S3_(ptr dead_on_unwind writable sret(%"class.std::__cxx11::basic_string") align 8 %0, ptr noundef nonnull align 8 dereferenceable(48) %7, ptr noundef nonnull align 8 dereferenceable(48) %8, ptr noundef nonnull align 8 dereferenceable(48) %9, ptr noundef nonnull align 8 dereferenceable(48) %10)
          to label %47 unwind label %48

47:                                               ; preds = %_ZN4absl7debian28AlphaNumC2ISaIcEEERKNSt7__cxx1112basic_stringIcSt11char_traitsIcET_EE.exit
  call void @_ZNSt7__cxx1112basic_stringIcSt11char_traitsIcESaIcEED1Ev(ptr noundef nonnull align 8 dereferenceable(32) %11) #24
  br label %50

48:                                               ; preds = %_ZN4absl7debian28AlphaNumC2ISaIcEEERKNSt7__cxx1112basic_stringIcSt11char_traitsIcET_EE.exit
  %49 = landingpad { ptr, i32 }
          cleanup
  call void @_ZNSt7__cxx1112basic_stringIcSt11char_traitsIcESaIcEED1Ev(ptr noundef nonnull align 8 dereferenceable(32) %11) #24
  resume { ptr, i32 } %49

50:                                               ; preds = %47, %_ZN4absl7debian28AlphaNumC2El.exit
  ret void
}